target datalayout = "e-m:e-p270:32:32-p271:32:32-p272:64:64-i64:64-i128:128-f80:128-n8:16:32:64-S128"
target triple = "x86_64-pc-linux-gnu"

%"class.llvm::SmallVectorBase" = type { ptr, i32, i32 }
%"class.llvm::SmallPtrSetImplBase.base" = type <{ ptr, ptr, i32, i32, i32 }>
%"class.std::_Function_base" = type { %"union.std::_Any_data", ptr }
%"union.std::_Any_data" = type { %"union.std::_Nocopy_types" }
%"union.std::_Nocopy_types" = type { { i64, i64 } }
%"struct.std::_Rb_tree_header" = type { %"struct.std::_Rb_tree_node_base", i64 }
%"struct.std::_Rb_tree_node_base" = type { i32, ptr, ptr, ptr }
%"class.(anonymous namespace)::LSRInstance" = type { ptr, ptr, ptr, ptr, ptr, ptr, ptr, ptr, ptr, i32, %"class.llvm::SCEVExpander", i8, ptr, %"class.llvm::SetVector", %"class.(anonymous namespace)::Cost", %"class.llvm::SmallSetVector", %"class.llvm::SmallVector.279", %"class.(anonymous namespace)::RegUseTracker", %"class.llvm::SmallVector.292", %"class.llvm::SmallPtrSet.297", %"class.llvm::SmallVector.226", %"class.llvm::DenseMap.300" }
%"class.llvm::SCEVExpander" = type { ptr, ptr, ptr, i8, [7 x i8], %"class.llvm::DenseMap.214", %"class.llvm::DenseSet", %"class.llvm::DenseSet", %"class.llvm::SmallPtrSet.220", %"class.llvm::DenseMap.223", %"class.llvm::SmallVector.226", %"class.llvm::DenseMap.231", %"class.llvm::SmallPtrSet.234", ptr, ptr, %"class.llvm::DenseSet.237", i8, i8, %"class.llvm::IRBuilder", %"class.llvm::SmallVector.251", ptr }
%"class.llvm::DenseMap.214" = type <{ ptr, i32, i32, i32, [4 x i8] }>
%"class.llvm::DenseSet" = type { %"class.llvm::detail::DenseSetImpl" }
%"class.llvm::detail::DenseSetImpl" = type { %"class.llvm::DenseMap.217" }
%"class.llvm::DenseMap.217" = type <{ ptr, i32, i32, i32, [4 x i8] }>
%"class.llvm::SmallPtrSet.220" = type { %"class.llvm::SmallPtrSetImpl.base.222", [16 x ptr] }
%"class.llvm::SmallPtrSetImpl.base.222" = type { %"class.llvm::SmallPtrSetImplBase.base" }
%"class.llvm::DenseMap.223" = type <{ ptr, i32, i32, i32, [4 x i8] }>
%"class.llvm::DenseMap.231" = type <{ ptr, i32, i32, i32, [4 x i8] }>
%"class.llvm::SmallPtrSet.234" = type { %"class.llvm::SmallPtrSetImpl.base.236", [2 x ptr] }
%"class.llvm::SmallPtrSetImpl.base.236" = type { %"class.llvm::SmallPtrSetImplBase.base" }
%"class.llvm::DenseSet.237" = type { %"class.llvm::detail::DenseSetImpl.238" }
%"class.llvm::detail::DenseSetImpl.238" = type { %"class.llvm::DenseMap.239" }
%"class.llvm::DenseMap.239" = type <{ ptr, i32, i32, i32, [4 x i8] }>
%"class.llvm::IRBuilder" = type { %"class.llvm::IRBuilderBase", %"class.llvm::InstSimplifyFolder", %"class.llvm::IRBuilderCallbackInserter" }
%"class.llvm::IRBuilderBase" = type { %"class.llvm::SmallVector.242", ptr, %"class.llvm::ilist_iterator_w_bits", ptr, ptr, ptr, ptr, %"class.llvm::FastMathFlags", i8, i8, i8, %"class.llvm::ArrayRef" }
%"class.llvm::SmallVector.242" = type { %"class.llvm::SmallVectorImpl.243", %"struct.llvm::SmallVectorStorage.246" }
%"class.llvm::SmallVectorImpl.243" = type { %"class.llvm::SmallVectorTemplateBase.244" }
%"class.llvm::SmallVectorTemplateBase.244" = type { %"class.llvm::SmallVectorTemplateCommon.245" }
%"class.llvm::SmallVectorTemplateCommon.245" = type { %"class.llvm::SmallVectorBase" }
%"struct.llvm::SmallVectorStorage.246" = type { [32 x i8] }
%"class.llvm::ilist_iterator_w_bits" = type <{ ptr, i8, i8, [6 x i8] }>
%"class.llvm::FastMathFlags" = type { i32 }
%"class.llvm::ArrayRef" = type { ptr, i64 }
%"class.llvm::InstSimplifyFolder" = type { %"class.llvm::IRBuilderFolder", %"class.llvm::TargetFolder", %"struct.llvm::SimplifyQuery" }
%"class.llvm::IRBuilderFolder" = type { ptr }
%"class.llvm::TargetFolder" = type { %"class.llvm::IRBuilderFolder", ptr }
%"struct.llvm::SimplifyQuery" = type <{ ptr, ptr, ptr, ptr, ptr, ptr, ptr, %"struct.llvm::InstrInfoQuery", i8, [6 x i8] }>
%"struct.llvm::InstrInfoQuery" = type { i8 }
%"class.llvm::IRBuilderCallbackInserter" = type { %"class.llvm::IRBuilderDefaultInserter", %"class.std::function.248" }
%"class.llvm::IRBuilderDefaultInserter" = type { ptr }
%"class.std::function.248" = type { %"class.std::_Function_base", ptr }
%"class.llvm::SmallVector.251" = type { %"class.llvm::SmallVectorImpl.252", %"struct.llvm::SmallVectorStorage.255" }
%"class.llvm::SmallVectorImpl.252" = type { %"class.llvm::SmallVectorTemplateBase.253" }
%"class.llvm::SmallVectorTemplateBase.253" = type { %"class.llvm::SmallVectorTemplateCommon.254" }
%"class.llvm::SmallVectorTemplateCommon.254" = type { %"class.llvm::SmallVectorBase" }
%"struct.llvm::SmallVectorStorage.255" = type { [64 x i8] }
%"class.llvm::SetVector" = type { %"class.llvm::SmallSet.256", %"class.llvm::SmallVector.257" }
%"class.llvm::SmallSet.256" = type { %"class.llvm::SmallVector.257", %"class.std::set.262" }
%"class.std::set.262" = type { %"class.std::_Rb_tree.263" }
%"class.std::_Rb_tree.263" = type { %"struct.std::_Rb_tree<long, long, std::_Identity<long>, std::less<long>>::_Rb_tree_impl" }
%"struct.std::_Rb_tree<long, long, std::_Identity<long>, std::less<long>>::_Rb_tree_impl" = type { [8 x i8], %"struct.std::_Rb_tree_header" }
%"class.llvm::SmallVector.257" = type { %"class.llvm::SmallVectorImpl.258", %"struct.llvm::SmallVectorStorage.261" }
%"class.llvm::SmallVectorImpl.258" = type { %"class.llvm::SmallVectorTemplateBase.259" }
%"class.llvm::SmallVectorTemplateBase.259" = type { %"class.llvm::SmallVectorTemplateCommon.260" }
%"class.llvm::SmallVectorTemplateCommon.260" = type { %"class.llvm::SmallVectorBase" }
%"struct.llvm::SmallVectorStorage.261" = type { [64 x i8] }
%"class.(anonymous namespace)::Cost" = type <{ ptr, ptr, ptr, %"struct.llvm::TargetTransformInfo::LSRCost", i32, [4 x i8] }>
%"struct.llvm::TargetTransformInfo::LSRCost" = type { i32, i32, i32, i32, i32, i32, i32, i32 }
%"class.llvm::SmallSetVector" = type { %"class.llvm::SetVector.268" }
%"class.llvm::SetVector.268" = type { %"class.llvm::DenseSet.269", %"class.llvm::SmallVector.274" }
%"class.llvm::DenseSet.269" = type { %"class.llvm::detail::DenseSetImpl.270" }
%"class.llvm::detail::DenseSetImpl.270" = type { %"class.llvm::DenseMap.271" }
%"class.llvm::DenseMap.271" = type <{ ptr, i32, i32, i32, [4 x i8] }>
%"class.llvm::SmallVector.274" = type { %"class.llvm::SmallVectorImpl.275", %"struct.llvm::SmallVectorStorage.278" }
%"class.llvm::SmallVectorImpl.275" = type { %"class.llvm::SmallVectorTemplateBase.276" }
%"class.llvm::SmallVectorTemplateBase.276" = type { %"class.llvm::SmallVectorTemplateCommon.277" }
%"class.llvm::SmallVectorTemplateCommon.277" = type { %"class.llvm::SmallVectorBase" }
%"struct.llvm::SmallVectorStorage.278" = type { [32 x i8] }
%"class.llvm::SmallVector.279" = type { %"class.llvm::SmallVectorImpl.280", %"struct.llvm::SmallVectorStorage.283" }
%"class.llvm::SmallVectorImpl.280" = type { %"class.llvm::SmallVectorTemplateBase.281" }
%"class.llvm::SmallVectorTemplateBase.281" = type { %"class.llvm::SmallVectorTemplateCommon.282" }
%"class.llvm::SmallVectorTemplateCommon.282" = type { %"class.llvm::SmallVectorBase" }
%"struct.llvm::SmallVectorStorage.283" = type { [34816 x i8] }
%"class.(anonymous namespace)::RegUseTracker" = type { %"class.llvm::DenseMap.284", %"class.llvm::SmallVector.287" }
%"class.llvm::DenseMap.284" = type <{ ptr, i32, i32, i32, [4 x i8] }>
%"class.llvm::SmallVector.287" = type { %"class.llvm::SmallVectorImpl.288", %"struct.llvm::SmallVectorStorage.291" }
%"class.llvm::SmallVectorImpl.288" = type { %"class.llvm::SmallVectorTemplateBase.289" }
%"class.llvm::SmallVectorTemplateBase.289" = type { %"class.llvm::SmallVectorTemplateCommon.290" }
%"class.llvm::SmallVectorTemplateCommon.290" = type { %"class.llvm::SmallVectorBase" }
%"struct.llvm::SmallVectorStorage.291" = type { [128 x i8] }
%"class.llvm::SmallVector.292" = type { %"class.llvm::SmallVectorImpl.293", %"struct.llvm::SmallVectorStorage.296" }
%"class.llvm::SmallVectorImpl.293" = type { %"class.llvm::SmallVectorTemplateBase.294" }
%"class.llvm::SmallVectorTemplateBase.294" = type { %"class.llvm::SmallVectorTemplateCommon.295" }
%"class.llvm::SmallVectorTemplateCommon.295" = type { %"class.llvm::SmallVectorBase" }
%"struct.llvm::SmallVectorStorage.296" = type { [384 x i8] }
%"class.llvm::SmallPtrSet.297" = type { %"class.llvm::SmallPtrSetImpl.base.299", [8 x ptr] }
%"class.llvm::SmallPtrSetImpl.base.299" = type { %"class.llvm::SmallPtrSetImplBase.base" }
%"class.llvm::SmallVector.226" = type { %"class.llvm::SmallVectorImpl.227", %"struct.llvm::SmallVectorStorage.230" }
%"class.llvm::SmallVectorImpl.227" = type { %"class.llvm::SmallVectorTemplateBase.228" }
%"class.llvm::SmallVectorTemplateBase.228" = type { %"class.llvm::SmallVectorTemplateCommon.229" }
%"class.llvm::SmallVectorTemplateCommon.229" = type { %"class.llvm::SmallVectorBase" }
%"struct.llvm::SmallVectorStorage.230" = type { [48 x i8] }
%"class.llvm::DenseMap.300" = type <{ ptr, i32, i32, i32, [4 x i8] }>
%"class.llvm::SmallVector.556" = type { %"class.llvm::SmallVectorImpl.288", %"struct.llvm::SmallVectorStorage.557" }
%"struct.llvm::SmallVectorStorage.557" = type { [32 x i8] }
%"class.(anonymous namespace)::Immediate" = type { %"class.llvm::details::FixedOrScalableQuantity.base.658", [7 x i8] }
%"class.llvm::details::FixedOrScalableQuantity.base.658" = type <{ i64, i8 }>
%"struct.(anonymous namespace)::Formula" = type { ptr, %"class.(anonymous namespace)::Immediate", i8, i64, %"class.llvm::SmallVector.556", ptr, %"class.(anonymous namespace)::Immediate" }

; Function Attrs: mustprogress nounwind uwtable
define linkonce_odr hidden noundef ptr @_ZNK4llvm25SmallVectorTemplateCommonIPKNS_4SCEVEvE3endEv(ptr noundef nonnull align 8 dereferenceable(16) %0) #1 comdat align 2 {
  %2 = alloca ptr, align 8
  store ptr %0, ptr %2, align 8
  %3 = load ptr, ptr %2, align 8
  %4 = call noundef ptr @_ZNK4llvm25SmallVectorTemplateCommonIPKNS_4SCEVEvE5beginEv(ptr noundef nonnull align 8 dereferenceable(16) %3)
  %5 = call noundef i64 @_ZNK4llvm15SmallVectorBaseIjE4sizeEv(ptr noundef nonnull align 8 dereferenceable(16) %3)
  %6 = getelementptr inbounds ptr, ptr %4, i64 %5
  ret ptr %6
}

; Function Attrs: mustprogress nounwind uwtable
define linkonce_odr hidden noundef ptr @_ZNK4llvm25SmallVectorTemplateCommonIPKNS_4SCEVEvE5beginEv(ptr noundef nonnull align 8 dereferenceable(16) %0) #1 comdat align 2 {
  %2 = alloca ptr, align 8
  store ptr %0, ptr %2, align 8
  %3 = load ptr, ptr %2, align 8
  %4 = getelementptr inbounds nuw %"class.llvm::SmallVectorBase", ptr %3, i32 0, i32 0
  %5 = load ptr, ptr %4, align 8
  ret ptr %5
}

; Function Attrs: mustprogress nounwind uwtable
define internal void @_ZN12_GLOBAL__N_111LSRInstance14CountRegistersERKNS_7FormulaEm(ptr noundef nonnull align 8 dereferenceable(36840) %0, ptr noundef nonnull align 8 dereferenceable(112) %1, i64 noundef %2) #1 align 2 {
  %4 = alloca ptr, align 8
  %5 = alloca ptr, align 8
  %6 = alloca i64, align 8
  %7 = alloca ptr, align 8
  %8 = alloca ptr, align 8
  %9 = alloca ptr, align 8
  %10 = alloca ptr, align 8
  store ptr %0, ptr %4, align 8
  store ptr %1, ptr %5, align 8
  store i64 %2, ptr %6, align 8
  %11 = load ptr, ptr %4, align 8
  %12 = load ptr, ptr %5, align 8
  %13 = getelementptr inbounds nuw %"struct.(anonymous namespace)::Formula", ptr %12, i32 0, i32 5
  %14 = load ptr, ptr %13, align 8
  %15 = icmp ne ptr %14, null
  br i1 %15, label %16, label %22

16:                                               ; preds = %3
  %17 = getelementptr inbounds nuw %"class.(anonymous namespace)::LSRInstance", ptr %11, i32 0, i32 17
  %18 = load ptr, ptr %5, align 8
  %19 = getelementptr inbounds nuw %"struct.(anonymous namespace)::Formula", ptr %18, i32 0, i32 5
  %20 = load ptr, ptr %19, align 8
  %21 = load i64, ptr %6, align 8
  call void @_ZN12_GLOBAL__N_113RegUseTracker13countRegisterEPKN4llvm4SCEVEm(ptr noundef nonnull align 8 dereferenceable(168) %17, ptr noundef %20, i64 noundef %21)
  br label %22

22:                                               ; preds = %16, %3
  %23 = load ptr, ptr %5, align 8
  %24 = getelementptr inbounds nuw %"struct.(anonymous namespace)::Formula", ptr %23, i32 0, i32 4
  store ptr %24, ptr %7, align 8
  %25 = load ptr, ptr %7, align 8
  %26 = call noundef ptr @_ZNK4llvm25SmallVectorTemplateCommonIPKNS_4SCEVEvE5beginEv(ptr noundef nonnull align 8 dereferenceable(16) %25)
  store ptr %26, ptr %8, align 8
  %27 = load ptr, ptr %7, align 8
  %28 = call noundef ptr @_ZNK4llvm25SmallVectorTemplateCommonIPKNS_4SCEVEvE3endEv(ptr noundef nonnull align 8 dereferenceable(16) %27)
  store ptr %28, ptr %9, align 8
  br label %29

29:                                               ; preds = %39, %22
  %30 = load ptr, ptr %8, align 8
  %31 = load ptr, ptr %9, align 8
  %32 = icmp ne ptr %30, %31
  br i1 %32, label %33, label %42

33:                                               ; preds = %29
  %34 = load ptr, ptr %8, align 8
  %35 = load ptr, ptr %34, align 8
  store ptr %35, ptr %10, align 8
  %36 = getelementptr inbounds nuw %"class.(anonymous namespace)::LSRInstance", ptr %11, i32 0, i32 17
  %37 = load ptr, ptr %10, align 8
  %38 = load i64, ptr %6, align 8
  call void @_ZN12_GLOBAL__N_113RegUseTracker13countRegisterEPKN4llvm4SCEVEm(ptr noundef nonnull align 8 dereferenceable(168) %36, ptr noundef %37, i64 noundef %38)
  br label %39

39:                                               ; preds = %33
  %40 = load ptr, ptr %8, align 8
  %41 = getelementptr inbounds ptr, ptr %40, i32 1
  store ptr %41, ptr %8, align 8
  br label %29

42:                                               ; preds = %29
  ret void
}