; Function Attrs: mustprogress nounwind uwtable
define internal fastcc void @_ZN12_GLOBAL__N_111LSRInstance14CountRegistersERKNS_7FormulaEm(ptr noundef nonnull align 8 dereferenceable(36840) %0, ptr noundef nonnull align 8 dereferenceable(112) %1, i64 noundef %2) unnamed_addr #0 align 2 {
  %4 = getelementptr inbounds nuw i8, ptr %1, i64 88
  %5 = load ptr, ptr %4, align 8
  %.not = icmp eq ptr %5, null
  br i1 %.not, label %8, label %6

6:                                                ; preds = %3
  %7 = getelementptr inbounds nuw i8, ptr %0, i64 36088
  tail call fastcc void @_ZN12_GLOBAL__N_113RegUseTracker13countRegisterEPKN4llvm4SCEVEm(ptr noundef nonnull align 8 dereferenceable(168) %7, ptr noundef nonnull %5, i64 noundef %2)
  br label %8

8:                                                ; preds = %6, %3
  %9 = getelementptr inbounds nuw i8, ptr %1, i64 40
  %10 = load ptr, ptr %9, align 8
  %11 = tail call noundef i64 @_ZNK4llvm15SmallVectorBaseIjE4sizeEv(ptr noundef nonnull align 8 dereferenceable(16) %9) #21
  %12 = getelementptr inbounds ptr, ptr %10, i64 %11
  %.not1314 = icmp eq i64 %11, 0
  br i1 %.not1314, label %._crit_edge, label %.lr.ph

.lr.ph:                                           ; preds = %8
  %13 = getelementptr inbounds nuw i8, ptr %0, i64 36088
  br label %14

14:                                               ; preds = %.lr.ph, %14
  %.015 = phi ptr [ %10, %.lr.ph ], [ %16, %14 ]
  %15 = load ptr, ptr %.015, align 8
  tail call fastcc void @_ZN12_GLOBAL__N_113RegUseTracker13countRegisterEPKN4llvm4SCEVEm(ptr noundef nonnull align 8 dereferenceable(168) %13, ptr noundef %15, i64 noundef %2)
  %16 = getelementptr inbounds i8, ptr %.015, i64 8
  %.not13 = icmp eq ptr %16, %12
  br i1 %.not13, label %._crit_edge, label %14

._crit_edge:                                      ; preds = %14, %8
  ret void
}